target datalayout = "e-m:e-p270:32:32-p271:32:32-p272:64:64-i64:64-i128:128-f80:128-n8:16:32:64-S128"
target triple = "x86_64-pc-linux-gnu"

%"class.open3d::core::Dtype" = type { i32, i64, [16 x i8] }
%struct.png_image = type { ptr, i32, i32, i32, i32, i32, i32, i32, [64 x i8] }
%"class.std::__cxx11::basic_string" = type { %"struct.std::__cxx11::basic_string<char>::_Alloc_hider", i64, %union.anon }
%"struct.std::__cxx11::basic_string<char>::_Alloc_hider" = type { ptr }
%union.anon = type { i64, [8 x i8] }
%"class.open3d::t::geometry::Image" = type { %"class.open3d::t::geometry::Geometry", %"class.open3d::core::Tensor" }
%"class.open3d::t::geometry::Geometry" = type { %"class.open3d::core::IsDevice", i32, i32, %"class.std::__cxx11::basic_string" }
%"class.open3d::core::IsDevice" = type { ptr }
%"class.open3d::core::Tensor" = type { %"class.open3d::core::IsDevice", %"class.open3d::core::SizeVector", %"class.open3d::core::SizeVector", ptr, %"class.open3d::core::Dtype", %"class.std::shared_ptr" }
%"class.open3d::core::SizeVector" = type { %"class.open3d::core::SmallVector" }
%"class.open3d::core::SmallVector" = type { %"class.open3d::core::SmallVectorImpl", %"struct.open3d::core::SmallVectorStorage" }
%"class.open3d::core::SmallVectorImpl" = type { %"class.open3d::core::SmallVectorTemplateBase" }
%"class.open3d::core::SmallVectorTemplateBase" = type { %"class.open3d::core::SmallVectorTemplateCommon" }
%"class.open3d::core::SmallVectorTemplateCommon" = type { %"class.open3d::core::SmallVectorBase" }
%"class.open3d::core::SmallVectorBase" = type { ptr, i32, i32 }
%"struct.open3d::core::SmallVectorStorage" = type { [32 x i8] }
%"class.std::shared_ptr" = type { %"class.std::__shared_ptr" }
%"class.std::__shared_ptr" = type { ptr, %"class.std::__shared_count" }
%"class.std::__shared_count" = type { ptr }

@.str = private unnamed_addr constant [131 x i8] c"generated/home/dtcxzyw/WorkSpace/Projects/compilers/llvm-opt-benchmark/bench/open3d/Open3D/cpp/open3d/t/io/file_format/FilePNG.cpp\00", align 1
@_ZN6open3d4core6UInt16E = external global %"class.open3d::core::Dtype", align 8
@_ZN6open3d4core5UInt8E = external global %"class.open3d::core::Dtype", align 8
@__PRETTY_FUNCTION__._ZN6open3d1t2io15WriteImageToPNGERKNSt7__cxx1112basic_stringIcSt11char_traitsIcESaIcEEERKNS0_8geometry5ImageEi = private unnamed_addr constant [87 x i8] c"bool open3d::t::io::WriteImageToPNG(const std::string &, const geometry::Image &, int)\00", align 1
@.str.52 = private unnamed_addr constant [37 x i8] c"Write PNG failed: image has no data.\00", align 1
@_ZN6open3d4core4BoolE = external global %"class.open3d::core::Dtype", align 8
@.str.53 = private unnamed_addr constant [42 x i8] c"Write PNG failed: unsupported image data.\00", align 1
@.str.54 = private unnamed_addr constant [58 x i8] c"Write PNG failed: quality ({}) must be in the range [0,9]\00", align 1
@.str.55 = private unnamed_addr constant [43 x i8] c"Write PNG failed: unable to write file: {}\00", align 1

; Function Attrs: inlinehint mustprogress nounwind ssp uwtable
define linkonce_odr noundef ptr @_ZNK6open3d4core6Tensor10GetDataPtrEv(ptr noundef nonnull align 8 dereferenceable(160) %0) #12 comdat align 2 {
  %2 = alloca ptr, align 8
  store ptr %0, ptr %2, align 8, !tbaa !60
  %3 = load ptr, ptr %2, align 8
  %4 = getelementptr inbounds nuw %"class.open3d::core::Tensor", ptr %3, i32 0, i32 3
  %5 = load ptr, ptr %4, align 8, !tbaa !62
  ret ptr %5
}

; Function Attrs: noinline noreturn nounwind ssp uwtable
define linkonce_odr hidden void @__clang_call_terminate(ptr noundef %0) #9 comdat {
  %2 = call ptr @__cxa_begin_catch(ptr %0) #25
  call void @_ZSt9terminatev() #26
  unreachable
}

; Function Attrs: mustprogress nounwind ssp uwtable
define available_externally noundef ptr @_ZNKSt7__cxx1112basic_stringIcSt11char_traitsIcESaIcEE7_M_dataEv(ptr noundef nonnull align 8 dereferenceable(32) %0) #1 align 2 {
  %2 = alloca ptr, align 8
  store ptr %0, ptr %2, align 8, !tbaa !19
  %3 = load ptr, ptr %2, align 8
  %4 = getelementptr inbounds nuw %"class.std::__cxx11::basic_string", ptr %3, i32 0, i32 0
  %5 = getelementptr inbounds nuw %"struct.std::__cxx11::basic_string<char>::_Alloc_hider", ptr %4, i32 0, i32 0
  %6 = load ptr, ptr %5, align 8, !tbaa !42
  ret ptr %6
}

; Function Attrs: inlinehint mustprogress nounwind ssp uwtable
define linkonce_odr void @_ZNK6open3d4core6Tensor8GetDtypeEv(ptr dead_on_unwind noalias writable sret(%"class.open3d::core::Dtype") align 8 %0, ptr noundef nonnull align 8 dereferenceable(160) %1) #12 comdat align 2 {
  %3 = alloca ptr, align 8
  store ptr %1, ptr %3, align 8, !tbaa !60
  %4 = load ptr, ptr %3, align 8
  %5 = getelementptr inbounds nuw %"class.open3d::core::Tensor", ptr %4, i32 0, i32 4
  call void @llvm.memcpy.p0.p0.i64(ptr align 8 %0, ptr align 8 %5, i64 32, i1 false), !tbaa.struct !32
  ret void
}

; Function Attrs: mustprogress ssp uwtable
define linkonce_odr noundef ptr @_ZNK6open3d1t8geometry5Image10GetDataPtrEv(ptr noundef nonnull align 8 dereferenceable(208) %0) #3 comdat align 2 {
  %2 = alloca ptr, align 8
  store ptr %0, ptr %2, align 8, !tbaa !21
  %3 = load ptr, ptr %2, align 8
  %4 = getelementptr inbounds nuw %"class.open3d::t::geometry::Image", ptr %3, i32 0, i32 1
  %5 = call noundef ptr @_ZNK6open3d4core6Tensor10GetDataPtrEv(ptr noundef nonnull align 8 dereferenceable(160) %4)
  ret ptr %5
}

; Function Attrs: mustprogress nounwind ssp uwtable
define available_externally noundef ptr @_ZNKSt7__cxx1112basic_stringIcSt11char_traitsIcESaIcEE5c_strEv(ptr noundef nonnull align 8 dereferenceable(32) %0) #1 align 2 personality ptr @__gxx_personality_v0 {
  %2 = alloca ptr, align 8
  store ptr %0, ptr %2, align 8, !tbaa !19
  %3 = load ptr, ptr %2, align 8
  %4 = invoke noundef ptr @_ZNKSt7__cxx1112basic_stringIcSt11char_traitsIcESaIcEE7_M_dataEv(ptr noundef nonnull align 8 dereferenceable(32) %3)
          to label %5 unwind label %6

5:                                                ; preds = %1
  ret ptr %4

6:                                                ; preds = %1
  %7 = landingpad { ptr, i32 }
          catch ptr null
  %8 = extractvalue { ptr, i32 } %7, 0
  call void @__clang_call_terminate(ptr %8) #26
  unreachable
}

; Function Attrs: alwaysinline mustprogress nounwind
define internal ptr @memset.inline(ptr nonnull %0, i32 %1, i64 %2) #4 {
  %4 = alloca ptr, align 8
  %5 = alloca i32, align 4
  %6 = alloca i64, align 8
  store ptr %0, ptr %4, align 8, !tbaa !38
  store i32 %1, ptr %5, align 4, !tbaa !39
  store i64 %2, ptr %6, align 8, !tbaa !35
  %7 = load ptr, ptr %4, align 8, !tbaa !38
  %8 = load i32, ptr %5, align 4, !tbaa !39
  %9 = load i64, ptr %6, align 8, !tbaa !35
  %10 = load ptr, ptr %4, align 8, !tbaa !38
  %11 = call i64 @llvm.objectsize.i64.p0(ptr %10, i1 false, i1 true, i1 false)
  %12 = call ptr @__memset_chk(ptr noundef %7, i32 noundef %8, i64 noundef %9, i64 noundef %11) #25
  ret ptr %12
}

; Function Attrs: mustprogress ssp uwtable
define linkonce_odr void @_ZNK6open3d1t8geometry5Image8GetDtypeEv(ptr dead_on_unwind noalias writable sret(%"class.open3d::core::Dtype") align 8 %0, ptr noundef nonnull align 8 dereferenceable(208) %1) #3 comdat align 2 {
  %3 = alloca ptr, align 8
  store ptr %1, ptr %3, align 8, !tbaa !21
  %4 = load ptr, ptr %3, align 8
  %5 = getelementptr inbounds nuw %"class.open3d::t::geometry::Image", ptr %4, i32 0, i32 1
  call void @_ZNK6open3d4core6Tensor8GetDtypeEv(ptr dead_on_unwind writable sret(%"class.open3d::core::Dtype") align 8 %0, ptr noundef nonnull align 8 dereferenceable(160) %5)
  ret void
}

; Function Attrs: mustprogress ssp uwtable
define noundef zeroext i1 @_ZN6open3d1t2io15WriteImageToPNGERKNSt7__cxx1112basic_stringIcSt11char_traitsIcESaIcEEERKNS0_8geometry5ImageEi(ptr noundef nonnull align 8 dereferenceable(32) %0, ptr noundef nonnull align 8 dereferenceable(208) %1, i32 noundef %2) #3 {
  %4 = alloca i1, align 1
  %5 = alloca ptr, align 8
  %6 = alloca ptr, align 8
  %7 = alloca i32, align 4
  %8 = alloca %"class.open3d::core::Dtype", align 8
  %9 = alloca %"class.open3d::core::Dtype", align 8
  %10 = alloca %"class.open3d::core::Dtype", align 8
  %11 = alloca %struct.png_image, align 8
  %12 = alloca i32, align 4
  store ptr %0, ptr %5, align 8, !tbaa !19
  store ptr %1, ptr %6, align 8, !tbaa !21
  store i32 %2, ptr %7, align 4, !tbaa !39
  %13 = load ptr, ptr %6, align 8, !tbaa !21
  %14 = load ptr, ptr %13, align 8, !tbaa !27
  %15 = getelementptr inbounds ptr, ptr %14, i64 4
  %16 = load ptr, ptr %15, align 8
  %17 = call noundef zeroext i1 %16(ptr noundef nonnull align 8 dereferenceable(208) %13)
  br i1 %17, label %18, label %19

18:                                               ; preds = %3
  call void @_ZN6open3d7utility6Logger11LogWarning_IJEEEvPKciS4_S4_DpOT_(ptr noundef @.str, i32 noundef 79, ptr noundef @__PRETTY_FUNCTION__._ZN6open3d1t2io15WriteImageToPNGERKNSt7__cxx1112basic_stringIcSt11char_traitsIcESaIcEEERKNS0_8geometry5ImageEi, ptr noundef @.str.52)
  store i1 false, ptr %4, align 1
  br label %57

19:                                               ; preds = %3
  call void @llvm.lifetime.start.p0(i64 32, ptr %8) #25
  %20 = load ptr, ptr %6, align 8, !tbaa !21
  call void @_ZNK6open3d1t8geometry5Image8GetDtypeEv(ptr dead_on_unwind writable sret(%"class.open3d::core::Dtype") align 8 %8, ptr noundef nonnull align 8 dereferenceable(208) %20)
  %21 = call noundef zeroext i1 @_ZNK6open3d4core5DtypeneERKS1_(ptr noundef nonnull align 8 dereferenceable(32) %8, ptr noundef nonnull align 8 dereferenceable(32) @_ZN6open3d4core4BoolE)
  call void @llvm.lifetime.start.p0(i64 32, ptr %9) #25
  call void @llvm.lifetime.start.p0(i64 32, ptr %10) #25
  br i1 %21, label %22, label %28

22:                                               ; preds = %19
  %23 = load ptr, ptr %6, align 8, !tbaa !21
  call void @_ZNK6open3d1t8geometry5Image8GetDtypeEv(ptr dead_on_unwind writable sret(%"class.open3d::core::Dtype") align 8 %9, ptr noundef nonnull align 8 dereferenceable(208) %23)
  %24 = call noundef zeroext i1 @_ZNK6open3d4core5DtypeneERKS1_(ptr noundef nonnull align 8 dereferenceable(32) %9, ptr noundef nonnull align 8 dereferenceable(32) @_ZN6open3d4core5UInt8E)
  br i1 %24, label %25, label %28

25:                                               ; preds = %22
  %26 = load ptr, ptr %6, align 8, !tbaa !21
  call void @_ZNK6open3d1t8geometry5Image8GetDtypeEv(ptr dead_on_unwind writable sret(%"class.open3d::core::Dtype") align 8 %10, ptr noundef nonnull align 8 dereferenceable(208) %26)
  %27 = call noundef zeroext i1 @_ZNK6open3d4core5DtypeneERKS1_(ptr noundef nonnull align 8 dereferenceable(32) %10, ptr noundef nonnull align 8 dereferenceable(32) @_ZN6open3d4core6UInt16E)
  br label %28

28:                                               ; preds = %25, %22, %19
  %29 = phi i1 [ false, %22 ], [ false, %19 ], [ %27, %25 ]
  call void @llvm.lifetime.end.p0(i64 32, ptr %10) #25
  call void @llvm.lifetime.end.p0(i64 32, ptr %9) #25
  call void @llvm.lifetime.end.p0(i64 32, ptr %8) #25
  br i1 %29, label %30, label %31

30:                                               ; preds = %28
  call void @_ZN6open3d7utility6Logger11LogWarning_IJEEEvPKciS4_S4_DpOT_(ptr noundef @.str, i32 noundef 84, ptr noundef @__PRETTY_FUNCTION__._ZN6open3d1t2io15WriteImageToPNGERKNSt7__cxx1112basic_stringIcSt11char_traitsIcESaIcEEERKNS0_8geometry5ImageEi, ptr noundef @.str.53)
  store i1 false, ptr %4, align 1
  br label %57

31:                                               ; preds = %28
  %32 = load i32, ptr %7, align 4, !tbaa !39
  %33 = icmp eq i32 %32, -1
  br i1 %33, label %34, label %35

34:                                               ; preds = %31
  store i32 6, ptr %7, align 4, !tbaa !39
  br label %35

35:                                               ; preds = %34, %31
  %36 = load i32, ptr %7, align 4, !tbaa !39
  %37 = icmp slt i32 %36, 0
  br i1 %37, label %41, label %38

38:                                               ; preds = %35
  %39 = load i32, ptr %7, align 4, !tbaa !39
  %40 = icmp sgt i32 %39, 9
  br i1 %40, label %41, label %42

41:                                               ; preds = %38, %35
  call void @_ZN6open3d7utility6Logger11LogWarning_IJRiEEEvPKciS5_S5_DpOT_(ptr noundef @.str, i32 noundef 94, ptr noundef @__PRETTY_FUNCTION__._ZN6open3d1t2io15WriteImageToPNGERKNSt7__cxx1112basic_stringIcSt11char_traitsIcESaIcEEERKNS0_8geometry5ImageEi, ptr noundef @.str.54, ptr noundef nonnull align 4 dereferenceable(4) %7)
  store i1 false, ptr %4, align 1
  br label %57

42:                                               ; preds = %38
  call void @llvm.lifetime.start.p0(i64 104, ptr %11) #25
  %43 = call ptr @memset.inline(ptr noundef %11, i32 noundef 0, i64 noundef 104) #25
  %44 = getelementptr inbounds nuw %struct.png_image, ptr %11, i32 0, i32 1
  store i32 1, ptr %44, align 8, !tbaa !23
  %45 = load ptr, ptr %6, align 8, !tbaa !21
  %46 = load i32, ptr %7, align 4, !tbaa !39
  call void @_ZN6open3d1t2ioL20SetPNGImageFromImageERKNS0_8geometry5ImageEiR9png_image(ptr noundef nonnull align 8 dereferenceable(208) %45, i32 noundef %46, ptr noundef nonnull align 8 dereferenceable(104) %11)
  %47 = load ptr, ptr %5, align 8, !tbaa !19
  %48 = call noundef ptr @_ZNKSt7__cxx1112basic_stringIcSt11char_traitsIcESaIcEE5c_strEv(ptr noundef nonnull align 8 dereferenceable(32) %47) #25
  %49 = load ptr, ptr %6, align 8, !tbaa !21
  %50 = call noundef ptr @_ZNK6open3d1t8geometry5Image10GetDataPtrEv(ptr noundef nonnull align 8 dereferenceable(208) %49)
  %51 = call i32 @png_image_write_to_file(ptr noundef %11, ptr noundef %48, i32 noundef 0, ptr noundef %50, i32 noundef 0, ptr noundef null)
  %52 = icmp eq i32 %51, 0
  br i1 %52, label %53, label %55

53:                                               ; preds = %42
  %54 = load ptr, ptr %5, align 8, !tbaa !19
  call void @_ZN6open3d7utility6Logger11LogWarning_IJRKNSt7__cxx1112basic_stringIcSt11char_traitsIcESaIcEEEEEEvPKciSC_SC_DpOT_(ptr noundef @.str, i32 noundef 104, ptr noundef @__PRETTY_FUNCTION__._ZN6open3d1t2io15WriteImageToPNGERKNSt7__cxx1112basic_stringIcSt11char_traitsIcESaIcEEERKNS0_8geometry5ImageEi, ptr noundef @.str.55, ptr noundef nonnull align 8 dereferenceable(32) %54)
  store i1 false, ptr %4, align 1
  store i32 1, ptr %12, align 4
  br label %56

55:                                               ; preds = %42
  store i1 true, ptr %4, align 1
  store i32 1, ptr %12, align 4
  br label %56

56:                                               ; preds = %55, %53
  call void @llvm.lifetime.end.p0(i64 104, ptr %11) #25
  br label %57

57:                                               ; preds = %56, %41, %30, %18
  %58 = load i1, ptr %4, align 1
  ret i1 %58
}