; Function Attrs: mustprogress ssp uwtable
define noundef zeroext i1 @_ZN6open3d1t2io15WriteImageToPNGERKNSt7__cxx1112basic_stringIcSt11char_traitsIcESaIcEEERKNS0_8geometry5ImageEi(ptr noundef nonnull align 8 dereferenceable(32) %0, ptr noundef nonnull align 8 dereferenceable(208) %1, i32 noundef %2) local_unnamed_addr #1 personality ptr @__gxx_personality_v0 {
  %4 = alloca i32, align 4
  %5 = alloca %"class.open3d::core::Dtype", align 8
  %6 = alloca %"class.open3d::core::Dtype", align 8
  %7 = alloca %"class.open3d::core::Dtype", align 8
  %8 = alloca %struct.png_image, align 8
  store i32 %2, ptr %4, align 4, !tbaa !142
  %9 = load ptr, ptr %1, align 8, !tbaa !24
  %10 = getelementptr inbounds nuw i8, ptr %9, i64 32
  %11 = load ptr, ptr %10, align 8
  %12 = tail call noundef zeroext i1 %11(ptr noundef nonnull align 8 dereferenceable(208) %1)
  br i1 %12, label %13, label %14

13:                                               ; preds = %3
  tail call void @_ZN6open3d7utility6Logger11LogWarning_IJEEEvPKciS4_S4_DpOT_(ptr noundef nonnull @.str, i32 noundef 79, ptr noundef nonnull @__PRETTY_FUNCTION__._ZN6open3d1t2io15WriteImageToPNGERKNSt7__cxx1112basic_stringIcSt11char_traitsIcESaIcEEERKNS0_8geometry5ImageEi, ptr noundef nonnull @.str.52)
  br label %35

14:                                               ; preds = %3
  call void @llvm.lifetime.start.p0(i64 32, ptr nonnull %5) #27
  %15 = getelementptr inbounds nuw i8, ptr %1, i64 160
  call void @llvm.memcpy.p0.p0.i64(ptr noundef nonnull align 8 dereferenceable(32) %5, ptr noundef nonnull align 8 dereferenceable(32) %15, i64 32, i1 false), !tbaa.struct !19
  %16 = call noundef zeroext i1 @_ZNK6open3d4core5DtypeneERKS1_(ptr noundef nonnull align 8 dereferenceable(32) %5, ptr noundef nonnull align 8 dereferenceable(32) @_ZN6open3d4core4BoolE)
  call void @llvm.lifetime.start.p0(i64 32, ptr nonnull %6) #27
  call void @llvm.lifetime.start.p0(i64 32, ptr nonnull %7) #27
  br i1 %16, label %17, label %.critedge

17:                                               ; preds = %14
  call void @llvm.memcpy.p0.p0.i64(ptr noundef nonnull align 8 dereferenceable(32) %6, ptr noundef nonnull align 8 dereferenceable(32) %15, i64 32, i1 false), !tbaa.struct !19
  %18 = call noundef zeroext i1 @_ZNK6open3d4core5DtypeneERKS1_(ptr noundef nonnull align 8 dereferenceable(32) %6, ptr noundef nonnull align 8 dereferenceable(32) @_ZN6open3d4core5UInt8E)
  br i1 %18, label %19, label %.critedge

19:                                               ; preds = %17
  call void @llvm.memcpy.p0.p0.i64(ptr noundef nonnull align 8 dereferenceable(32) %7, ptr noundef nonnull align 8 dereferenceable(32) %15, i64 32, i1 false), !tbaa.struct !19
  %20 = call noundef zeroext i1 @_ZNK6open3d4core5DtypeneERKS1_(ptr noundef nonnull align 8 dereferenceable(32) %7, ptr noundef nonnull align 8 dereferenceable(32) @_ZN6open3d4core6UInt16E)
  call void @llvm.lifetime.end.p0(i64 32, ptr nonnull %7) #27
  call void @llvm.lifetime.end.p0(i64 32, ptr nonnull %6) #27
  call void @llvm.lifetime.end.p0(i64 32, ptr nonnull %5) #27
  br i1 %20, label %21, label %22

21:                                               ; preds = %19
  call void @_ZN6open3d7utility6Logger11LogWarning_IJEEEvPKciS4_S4_DpOT_(ptr noundef nonnull @.str, i32 noundef 84, ptr noundef nonnull @__PRETTY_FUNCTION__._ZN6open3d1t2io15WriteImageToPNGERKNSt7__cxx1112basic_stringIcSt11char_traitsIcESaIcEEERKNS0_8geometry5ImageEi, ptr noundef nonnull @.str.53)
  br label %35

.critedge:                                        ; preds = %14, %17
  call void @llvm.lifetime.end.p0(i64 32, ptr nonnull %7) #27
  call void @llvm.lifetime.end.p0(i64 32, ptr nonnull %6) #27
  call void @llvm.lifetime.end.p0(i64 32, ptr nonnull %5) #27
  br label %22

22:                                               ; preds = %.critedge, %19
  %23 = icmp eq i32 %2, -1
  br i1 %23, label %.thread, label %24

24:                                               ; preds = %22
  %or.cond = icmp ugt i32 %2, 9
  br i1 %or.cond, label %25, label %.thread

25:                                               ; preds = %24
  call void @_ZN6open3d7utility6Logger11LogWarning_IJRiEEEvPKciS5_S5_DpOT_(ptr noundef nonnull @.str, i32 noundef 94, ptr noundef nonnull @__PRETTY_FUNCTION__._ZN6open3d1t2io15WriteImageToPNGERKNSt7__cxx1112basic_stringIcSt11char_traitsIcESaIcEEERKNS0_8geometry5ImageEi, ptr noundef nonnull @.str.54, ptr noundef nonnull align 4 dereferenceable(4) %4)
  br label %35

.thread:                                          ; preds = %22, %24
  %26 = phi i32 [ %2, %24 ], [ 6, %22 ]
  call void @llvm.lifetime.start.p0(i64 104, ptr nonnull %8) #27
  call void @llvm.memset.p0.i64(ptr noundef nonnull align 8 dereferenceable(104) %8, i8 noundef 0, i64 noundef 104, i1 noundef false) #27
  %27 = getelementptr inbounds nuw i8, ptr %8, i64 8
  store i32 1, ptr %27, align 8, !tbaa !4
  call fastcc void @_ZN6open3d1t2ioL20SetPNGImageFromImageERKNS0_8geometry5ImageEiR9png_image(ptr noundef nonnull align 8 dereferenceable(208) %1, i32 noundef %26, ptr noundef nonnull align 8 dereferenceable(104) %8)
  %28 = load ptr, ptr %0, align 8, !tbaa !11
  %29 = getelementptr inbounds nuw i8, ptr %1, i64 152
  %30 = load ptr, ptr %29, align 8, !tbaa !26
  %31 = call i32 @png_image_write_to_file(ptr noundef nonnull %8, ptr noundef %28, i32 noundef 0, ptr noundef %30, i32 noundef 0, ptr noundef null)
  %32 = icmp ne i32 %31, 0
  br i1 %32, label %34, label %33

33:                                               ; preds = %.thread
  call void @_ZN6open3d7utility6Logger11LogWarning_IJRKNSt7__cxx1112basic_stringIcSt11char_traitsIcESaIcEEEEEEvPKciSC_SC_DpOT_(ptr noundef nonnull @.str, i32 noundef 104, ptr noundef nonnull @__PRETTY_FUNCTION__._ZN6open3d1t2io15WriteImageToPNGERKNSt7__cxx1112basic_stringIcSt11char_traitsIcESaIcEEERKNS0_8geometry5ImageEi, ptr noundef nonnull @.str.55, ptr noundef nonnull align 8 dereferenceable(32) %0)
  br label %34

34:                                               ; preds = %.thread, %33
  call void @llvm.lifetime.end.p0(i64 104, ptr nonnull %8) #27
  br label %35

35:                                               ; preds = %34, %25, %21, %13
  %.0 = phi i1 [ false, %13 ], [ false, %21 ], [ false, %25 ], [ %32, %34 ]
  ret i1 %.0
}